target datalayout = "e-m:e-p270:32:32-p271:32:32-p272:64:64-i64:64-i128:128-f80:128-n8:16:32:64-S128"
target triple = "x86_64-unknown-linux-gnu"

%struct.BlockDriverState = type { i32, i8, i8, i8, i8, i8, ptr, ptr, ptr, %struct.anon, i8, [4096 x i8], [4096 x i8], [4096 x i8], [16 x i8], ptr, [4096 x i8], %struct.BlockLimits, i32, i32, i32, i32, [32 x i8], %union.anon, %union.anon.0, %union.anon.1, i32, [16 x %struct.anon.2], ptr, %struct.anon.3, ptr, ptr, %struct.anon.4, ptr, ptr, i32, ptr, i64, i64, %struct.QemuMutex, %struct.anon.5, %struct.Stat64, i32, i32, i32, i32, i32, i32, %struct.QemuMutex, %struct.anon.6, %struct.CoQueue, i8, i32, i8, %struct.CoMutex, ptr, ptr }
%struct.anon = type { ptr }
%struct.BlockLimits = type { i32, i64, i32, i64, i32, i32, i32, i64, i32, i64, i64, i32, i8, i32, i32, i32, i32, i32, i32, i32 }
%union.anon = type { %struct.QTailQLink }
%struct.QTailQLink = type { ptr, ptr }
%union.anon.0 = type { %struct.QTailQLink }
%union.anon.1 = type { %struct.QTailQLink }
%struct.anon.2 = type { ptr }
%struct.anon.3 = type { ptr }
%struct.anon.4 = type { ptr }
%struct.anon.5 = type { ptr }
%struct.Stat64 = type { i64 }
%struct.QemuMutex = type { %union.pthread_mutex_t, i8 }
%union.pthread_mutex_t = type { %struct.__pthread_mutex_s }
%struct.__pthread_mutex_s = type { i32, i32, i32, i32, i32, i16, i16, %struct.__pthread_internal_list }
%struct.__pthread_internal_list = type { ptr, ptr }
%struct.anon.6 = type { ptr }
%struct.CoQueue = type { %struct.anon.7 }
%struct.anon.7 = type { ptr, ptr }
%struct.CoMutex = type { i32, ptr, %struct.anon.8, %struct.anon.8, i32, i32, ptr }
%struct.anon.8 = type { ptr }
%struct.BDRVQcow2State = type { i32, i32, i32, i32, i32, i32, i32, i32, i32, i32, i32, i32, i32, i32, i64, i64, ptr, ptr, ptr, ptr, i32, %struct.anon.9, ptr, i64, i32, i32, i64, i64, %struct.CoMutex, %struct.Qcow2CryptoHeaderExtension, ptr, ptr, i8, i32, i64, i32, i32, ptr, i32, i64, i64, i32, i32, i8, i32, i32, i64, ptr, ptr, [5 x i8], i8, i32, i8, i64, i64, i64, i64, ptr, %struct.anon.10, %union.anon.11, i8, ptr, ptr, ptr, %struct.CoQueue, i32, ptr, i8, i8, i32 }
%struct.anon.9 = type { ptr }
%struct.Qcow2CryptoHeaderExtension = type { i64, i64 }
%struct.anon.10 = type { ptr }
%union.anon.11 = type { %struct.QTailQLink }
%struct.BdrvChild = type { ptr, ptr, ptr, i32, ptr, i64, i64, i8, i8, %struct.anon.12, %struct.anon.13 }
%struct.anon.12 = type { ptr, ptr }
%struct.anon.13 = type { ptr, ptr }

; Function Attrs: nounwind sspstrong uwtable
define internal void @g_autoptr_cleanup_generic_gfree(ptr noundef %p) #0 {
entry:
  %p.addr = alloca ptr, align 8
  %pp = alloca ptr, align 8
  store ptr %p, ptr %p.addr, align 8
  %0 = load ptr, ptr %p.addr, align 8
  store ptr %0, ptr %pp, align 8
  %1 = load ptr, ptr %pp, align 8
  %2 = load ptr, ptr %1, align 8
  call void @g_free(ptr noundef %2)
  ret void
}

; Function Attrs: nounwind sspstrong uwtable
define internal i64 @cpu_to_be64(i64 noundef %v) #0 {
entry:
  %v.addr = alloca i64, align 8
  store i64 %v, ptr %v.addr, align 8
  %0 = load i64, ptr %v.addr, align 8
  %1 = call i64 @llvm.bswap.i64(i64 %0)
  ret i64 %1
}

; Function Attrs: nounwind sspstrong uwtable
define dso_local i32 @qcow2_write_l1_entry(ptr noundef %bs, i32 noundef %l1_index) #0 {
entry:
  %retval = alloca i32, align 4
  %bs.addr = alloca ptr, align 8
  %l1_index.addr = alloca i32, align 4
  %s = alloca ptr, align 8
  %l1_start_index = alloca i32, align 4
  %i = alloca i32, align 4
  %ret = alloca i32, align 4
  %bufsize = alloca i32, align 4
  %_a6 = alloca i64, align 8
  %_b7 = alloca i64, align 8
  %_a4 = alloca i32, align 4
  %_b5 = alloca i32, align 4
  %tmp = alloca i32, align 4
  %tmp2 = alloca i64, align 8
  %nentries = alloca i32, align 4
  %buf = alloca ptr, align 8
  %cleanup.dest.slot = alloca i32, align 4
  %_a8 = alloca i32, align 4
  %_b9 = alloca i32, align 4
  %tmp16 = alloca i32, align 4
  store ptr %bs, ptr %bs.addr, align 8
  store i32 %l1_index, ptr %l1_index.addr, align 4
  %0 = load ptr, ptr %bs.addr, align 8
  %opaque = getelementptr inbounds %struct.BlockDriverState, ptr %0, i32 0, i32 7
  %1 = load ptr, ptr %opaque, align 8
  store ptr %1, ptr %s, align 8
  store i64 8, ptr %_a6, align 8
  %2 = load ptr, ptr %bs.addr, align 8
  %file = getelementptr inbounds %struct.BlockDriverState, ptr %2, i32 0, i32 31
  %3 = load ptr, ptr %file, align 8
  %bs1 = getelementptr inbounds %struct.BdrvChild, ptr %3, i32 0, i32 0
  %4 = load ptr, ptr %bs1, align 8
  %bl = getelementptr inbounds %struct.BlockDriverState, ptr %4, i32 0, i32 17
  %request_alignment = getelementptr inbounds %struct.BlockLimits, ptr %bl, i32 0, i32 0
  %5 = load i32, ptr %request_alignment, align 8
  store i32 %5, ptr %_a4, align 4
  %6 = load ptr, ptr %s, align 8
  %cluster_size = getelementptr inbounds %struct.BDRVQcow2State, ptr %6, i32 0, i32 1
  %7 = load i32, ptr %cluster_size, align 4
  store i32 %7, ptr %_b5, align 4
  %8 = load i32, ptr %_a4, align 4
  %9 = load i32, ptr %_b5, align 4
  %cmp = icmp ult i32 %8, %9
  br i1 %cmp, label %cond.true, label %cond.false

cond.true:                                        ; preds = %entry
  %10 = load i32, ptr %_a4, align 4
  br label %cond.end

cond.false:                                       ; preds = %entry
  %11 = load i32, ptr %_b5, align 4
  br label %cond.end

cond.end:                                         ; preds = %cond.false, %cond.true
  %cond = phi i32 [ %10, %cond.true ], [ %11, %cond.false ]
  store i32 %cond, ptr %tmp, align 4
  %12 = load i32, ptr %tmp, align 4
  %conv = zext i32 %12 to i64
  store i64 %conv, ptr %_b7, align 8
  %13 = load i64, ptr %_a6, align 8
  %14 = load i64, ptr %_b7, align 8
  %cmp3 = icmp ugt i64 %13, %14
  br i1 %cmp3, label %cond.true5, label %cond.false6

cond.true5:                                       ; preds = %cond.end
  %15 = load i64, ptr %_a6, align 8
  br label %cond.end7

cond.false6:                                      ; preds = %cond.end
  %16 = load i64, ptr %_b7, align 8
  br label %cond.end7

cond.end7:                                        ; preds = %cond.false6, %cond.true5
  %cond8 = phi i64 [ %15, %cond.true5 ], [ %16, %cond.false6 ]
  store i64 %cond8, ptr %tmp2, align 8
  %17 = load i64, ptr %tmp2, align 8
  %conv9 = trunc i64 %17 to i32
  store i32 %conv9, ptr %bufsize, align 4
  %18 = load i32, ptr %bufsize, align 4
  %conv10 = sext i32 %18 to i64
  %div = udiv i64 %conv10, 8
  %conv11 = trunc i64 %div to i32
  store i32 %conv11, ptr %nentries, align 4
  %19 = load i32, ptr %nentries, align 4
  %conv12 = sext i32 %19 to i64
  %call = call noalias ptr @g_try_malloc0_n(i64 noundef %conv12, i64 noundef 8) #11
  store ptr %call, ptr %buf, align 8
  %20 = load ptr, ptr %buf, align 8
  %cmp13 = icmp eq ptr %20, null
  br i1 %cmp13, label %if.then, label %if.end

if.then:                                          ; preds = %cond.end7
  store i32 -12, ptr %retval, align 4
  store i32 1, ptr %cleanup.dest.slot, align 4
  br label %cleanup

if.end:                                           ; preds = %cond.end7
  %21 = load i32, ptr %l1_index.addr, align 4
  %22 = load i32, ptr %nentries, align 4
  %div15 = sdiv i32 %21, %22
  %23 = load i32, ptr %nentries, align 4
  %mul = mul i32 %div15, %23
  store i32 %mul, ptr %l1_start_index, align 4
  store i32 0, ptr %i, align 4
  br label %for.cond

for.cond:                                         ; preds = %for.inc, %if.end
  %24 = load i32, ptr %i, align 4
  %25 = load i32, ptr %nentries, align 4
  store i32 %25, ptr %_a8, align 4
  %26 = load ptr, ptr %s, align 8
  %l1_size = getelementptr inbounds %struct.BDRVQcow2State, ptr %26, i32 0, i32 8
  %27 = load i32, ptr %l1_size, align 8
  %28 = load i32, ptr %l1_start_index, align 4
  %sub = sub i32 %27, %28
  store i32 %sub, ptr %_b9, align 4
  %29 = load i32, ptr %_a8, align 4
  %30 = load i32, ptr %_b9, align 4
  %cmp17 = icmp slt i32 %29, %30
  br i1 %cmp17, label %cond.true19, label %cond.false20

cond.true19:                                      ; preds = %for.cond
  %31 = load i32, ptr %_a8, align 4
  br label %cond.end21

cond.false20:                                     ; preds = %for.cond
  %32 = load i32, ptr %_b9, align 4
  br label %cond.end21

cond.end21:                                       ; preds = %cond.false20, %cond.true19
  %cond22 = phi i32 [ %31, %cond.true19 ], [ %32, %cond.false20 ]
  store i32 %cond22, ptr %tmp16, align 4
  %33 = load i32, ptr %tmp16, align 4
  %cmp23 = icmp slt i32 %24, %33
  br i1 %cmp23, label %for.body, label %for.end

for.body:                                         ; preds = %cond.end21
  %34 = load ptr, ptr %s, align 8
  %l1_table = getelementptr inbounds %struct.BDRVQcow2State, ptr %34, i32 0, i32 16
  %35 = load ptr, ptr %l1_table, align 8
  %36 = load i32, ptr %l1_start_index, align 4
  %37 = load i32, ptr %i, align 4
  %add = add i32 %36, %37
  %idxprom = sext i32 %add to i64
  %arrayidx = getelementptr i64, ptr %35, i64 %idxprom
  %38 = load i64, ptr %arrayidx, align 8
  %call25 = call i64 @cpu_to_be64(i64 noundef %38)
  %39 = load ptr, ptr %buf, align 8
  %40 = load i32, ptr %i, align 4
  %idxprom26 = sext i32 %40 to i64
  %arrayidx27 = getelementptr i64, ptr %39, i64 %idxprom26
  store i64 %call25, ptr %arrayidx27, align 8
  br label %for.inc

for.inc:                                          ; preds = %for.body
  %41 = load i32, ptr %i, align 4
  %inc = add i32 %41, 1
  store i32 %inc, ptr %i, align 4
  br label %for.cond, !llvm.loop !10

for.end:                                          ; preds = %cond.end21
  %42 = load ptr, ptr %bs.addr, align 8
  %43 = load ptr, ptr %s, align 8
  %l1_table_offset = getelementptr inbounds %struct.BDRVQcow2State, ptr %43, i32 0, i32 15
  %44 = load i64, ptr %l1_table_offset, align 8
  %45 = load i32, ptr %l1_start_index, align 4
  %conv28 = sext i32 %45 to i64
  %mul29 = mul i64 8, %conv28
  %add30 = add i64 %44, %mul29
  %46 = load i32, ptr %bufsize, align 4
  %conv31 = sext i32 %46 to i64
  %call32 = call i32 @qcow2_pre_write_overlap_check(ptr noundef %42, i32 noundef 2, i64 noundef %add30, i64 noundef %conv31, i1 noundef zeroext false)
  store i32 %call32, ptr %ret, align 4
  %47 = load i32, ptr %ret, align 4
  %cmp33 = icmp slt i32 %47, 0
  br i1 %cmp33, label %if.then35, label %if.end36

if.then35:                                        ; preds = %for.end
  %48 = load i32, ptr %ret, align 4
  store i32 %48, ptr %retval, align 4
  store i32 1, ptr %cleanup.dest.slot, align 4
  br label %cleanup

if.end36:                                         ; preds = %for.end
  br label %do.body

do.body:                                          ; preds = %if.end36
  %49 = load ptr, ptr %bs.addr, align 8
  %file37 = getelementptr inbounds %struct.BlockDriverState, ptr %49, i32 0, i32 31
  %50 = load ptr, ptr %file37, align 8
  %tobool = icmp ne ptr %50, null
  br i1 %tobool, label %if.then38, label %if.end41

if.then38:                                        ; preds = %do.body
  %51 = load ptr, ptr %bs.addr, align 8
  %file39 = getelementptr inbounds %struct.BlockDriverState, ptr %51, i32 0, i32 31
  %52 = load ptr, ptr %file39, align 8
  %bs40 = getelementptr inbounds %struct.BdrvChild, ptr %52, i32 0, i32 0
  %53 = load ptr, ptr %bs40, align 8
  call void @bdrv_debug_event(ptr noundef %53, i32 noundef 0)
  br label %if.end41

if.end41:                                         ; preds = %if.then38, %do.body
  br label %do.cond

do.cond:                                          ; preds = %if.end41
  br label %do.end

do.end:                                           ; preds = %do.cond
  %54 = load ptr, ptr %bs.addr, align 8
  %file42 = getelementptr inbounds %struct.BlockDriverState, ptr %54, i32 0, i32 31
  %55 = load ptr, ptr %file42, align 8
  %56 = load ptr, ptr %s, align 8
  %l1_table_offset43 = getelementptr inbounds %struct.BDRVQcow2State, ptr %56, i32 0, i32 15
  %57 = load i64, ptr %l1_table_offset43, align 8
  %58 = load i32, ptr %l1_start_index, align 4
  %conv44 = sext i32 %58 to i64
  %mul45 = mul i64 8, %conv44
  %add46 = add i64 %57, %mul45
  %59 = load i32, ptr %bufsize, align 4
  %conv47 = sext i32 %59 to i64
  %60 = load ptr, ptr %buf, align 8
  %call48 = call i32 @bdrv_pwrite_sync(ptr noundef %55, i64 noundef %add46, i64 noundef %conv47, ptr noundef %60, i32 noundef 0)
  store i32 %call48, ptr %ret, align 4
  %61 = load i32, ptr %ret, align 4
  %cmp49 = icmp slt i32 %61, 0
  br i1 %cmp49, label %if.then51, label %if.end52

if.then51:                                        ; preds = %do.end
  %62 = load i32, ptr %ret, align 4
  store i32 %62, ptr %retval, align 4
  store i32 1, ptr %cleanup.dest.slot, align 4
  br label %cleanup

if.end52:                                         ; preds = %do.end
  store i32 0, ptr %retval, align 4
  store i32 1, ptr %cleanup.dest.slot, align 4
  br label %cleanup

cleanup:                                          ; preds = %if.end52, %if.then51, %if.then35, %if.then
  call void @g_autoptr_cleanup_generic_gfree(ptr noundef %buf)
  %63 = load i32, ptr %retval, align 4
  ret i32 %63
}