; Function Attrs: nounwind sspstrong uwtable
define dso_local range(i32 -2147483648, 1) i32 @qcow2_write_l1_entry(ptr noundef %bs, i32 noundef %l1_index) local_unnamed_addr #0 {
entry:
  %opaque = getelementptr inbounds nuw i8, ptr %bs, i64 24
  %0 = load ptr, ptr %opaque, align 8
  %file = getelementptr inbounds nuw i8, ptr %bs, i64 16840
  %1 = load ptr, ptr %file, align 8
  %2 = load ptr, ptr %1, align 8
  %bl = getelementptr inbounds nuw i8, ptr %2, i64 16464
  %3 = load i32, ptr %bl, align 8
  %cluster_size = getelementptr inbounds nuw i8, ptr %0, i64 4
  %4 = load i32, ptr %cluster_size, align 4
  %cond = tail call i32 @llvm.umin.i32(i32 %3, i32 %4)
  %5 = tail call i32 @llvm.umax.i32(i32 %cond, i32 8)
  %conv10 = sext i32 %5 to i64
  %conv11 = ashr i32 %5, 3
  %conv12 = sext i32 %conv11 to i64
  %call = tail call noalias ptr @g_try_malloc0_n(i64 noundef %conv12, i64 noundef 8) #14
  %cmp13 = icmp eq ptr %call, null
  br i1 %cmp13, label %cleanup, label %if.end

if.end:                                           ; preds = %entry
  %6 = srem i32 %l1_index, %conv11
  %mul = sub nsw i32 %l1_index, %6
  %l1_size = getelementptr inbounds nuw i8, ptr %0, i64 32
  %7 = load i32, ptr %l1_size, align 8
  %sub32 = sub i32 %7, %mul
  %cond2233 = tail call i32 @llvm.smin.i32(i32 %conv11, i32 %sub32)
  %cmp2334 = icmp sgt i32 %cond2233, 0
  br i1 %cmp2334, label %for.body.lr.ph, label %for.end

for.body.lr.ph:                                   ; preds = %if.end
  %l1_table = getelementptr inbounds nuw i8, ptr %0, i64 72
  %.pre = load ptr, ptr %l1_table, align 8
  %8 = zext nneg i32 %cond2233 to i64
  br label %for.body

for.body:                                         ; preds = %for.body.lr.ph, %for.body
  %indvars.iv = phi i64 [ 0, %for.body.lr.ph ], [ %indvars.iv.next, %for.body ]
  %9 = trunc nuw nsw i64 %indvars.iv to i32
  %add = add i32 %mul, %9
  %idxprom = sext i32 %add to i64
  %arrayidx = getelementptr i64, ptr %.pre, i64 %idxprom
  %10 = load i64, ptr %arrayidx, align 8
  %11 = tail call noundef i64 @llvm.bswap.i64(i64 %10)
  %arrayidx27 = getelementptr i64, ptr %call, i64 %indvars.iv
  store i64 %11, ptr %arrayidx27, align 8
  %indvars.iv.next = add nuw nsw i64 %indvars.iv, 1
  %cmp23 = icmp samesign ult i64 %indvars.iv.next, %8
  br i1 %cmp23, label %for.body, label %for.end, !llvm.loop !10

for.end:                                          ; preds = %for.body, %if.end
  %l1_table_offset = getelementptr inbounds nuw i8, ptr %0, i64 64
  %12 = load i64, ptr %l1_table_offset, align 8
  %conv28 = sext i32 %mul to i64
  %mul29 = shl nsw i64 %conv28, 3
  %add30 = add i64 %12, %mul29
  %call32 = tail call i32 @qcow2_pre_write_overlap_check(ptr noundef %bs, i32 noundef 2, i64 noundef %add30, i64 noundef %conv10, i1 noundef zeroext false) #13
  %cmp33 = icmp slt i32 %call32, 0
  br i1 %cmp33, label %cleanup, label %do.body

do.body:                                          ; preds = %for.end
  %13 = load ptr, ptr %file, align 8
  %tobool.not = icmp eq ptr %13, null
  br i1 %tobool.not, label %do.end, label %if.then38

if.then38:                                        ; preds = %do.body
  %14 = load ptr, ptr %13, align 8
  tail call void @bdrv_debug_event(ptr noundef %14, i32 noundef 0) #13
  %.pre37 = load ptr, ptr %file, align 8
  br label %do.end

do.end:                                           ; preds = %if.then38, %do.body
  %15 = phi ptr [ %.pre37, %if.then38 ], [ null, %do.body ]
  %16 = load i64, ptr %l1_table_offset, align 8
  %add46 = add i64 %16, %mul29
  %call48 = tail call i32 @bdrv_pwrite_sync(ptr noundef %15, i64 noundef %add46, i64 noundef %conv10, ptr noundef nonnull %call, i32 noundef 0) #13
  %call48. = tail call i32 @llvm.smin.i32(i32 %call48, i32 0)
  br label %cleanup

cleanup:                                          ; preds = %do.end, %for.end, %entry
  %retval.0 = phi i32 [ -12, %entry ], [ %call32, %for.end ], [ %call48., %do.end ]
  tail call void @g_free(ptr noundef %call) #13
  ret i32 %retval.0
}